; Function Attrs: nounwind uwtable
define void @lv_observer_remove(ptr noundef %0) local_unnamed_addr #0 {
  %.not = icmp eq ptr %0, null
  br i1 %.not, label %.preheader, label %2

.preheader:                                       ; preds = %1, %.preheader
  br label %.preheader

2:                                                ; preds = %1
  %3 = load ptr, ptr %0, align 8, !tbaa !9
  %4 = getelementptr inbounds nuw i8, ptr %3, i64 48
  %5 = load i32, ptr %4, align 8
  %6 = or i32 %5, 268435456
  store i32 %6, ptr %4, align 8
  %7 = load ptr, ptr %0, align 8, !tbaa !9
  tail call void @lv_ll_remove(ptr noundef %7, ptr noundef nonnull %0) #9
  %8 = getelementptr inbounds nuw i8, ptr %0, i64 32
  %9 = load i8, ptr %8, align 8
  %10 = and i8 %9, 1
  %.not7 = icmp eq i8 %10, 0
  br i1 %.not7, label %14, label %11

11:                                               ; preds = %2
  %12 = getelementptr inbounds nuw i8, ptr %0, i64 24
  %13 = load ptr, ptr %12, align 8, !tbaa !13
  tail call void @lv_free(ptr noundef %13) #9
  br label %14

14:                                               ; preds = %11, %2
  tail call void @lv_free(ptr noundef nonnull %0) #9
  ret void
}